target datalayout = "e-m:e-p270:32:32-p271:32:32-p272:64:64-i64:64-i128:128-f80:128-n8:16:32:64-S128"
target triple = "x86_64-pc-linux-gnu"

%struct.ocsp_responder_id_st = type { i32, %union.anon }
%union.anon = type { ptr }

; Function Attrs: nounwind uwtable
define i32 @OCSP_RESPID_set_by_name(ptr noundef %0, ptr noundef %1) #0 {
  %3 = alloca i32, align 4
  %4 = alloca ptr, align 8
  %5 = alloca ptr, align 8
  store ptr %0, ptr %4, align 8, !tbaa !80
  store ptr %1, ptr %5, align 8, !tbaa !71
  %6 = load ptr, ptr %4, align 8, !tbaa !80
  %7 = getelementptr inbounds nuw %struct.ocsp_responder_id_st, ptr %6, i32 0, i32 1
  %8 = load ptr, ptr %5, align 8, !tbaa !71
  %9 = call ptr @X509_get_subject_name(ptr noundef %8)
  %10 = call i32 @X509_NAME_set(ptr noundef %7, ptr noundef %9)
  %11 = icmp ne i32 %10, 0
  br i1 %11, label %13, label %12

12:                                               ; preds = %2
  store i32 0, ptr %3, align 4
  br label %16

13:                                               ; preds = %2
  %14 = load ptr, ptr %4, align 8, !tbaa !80
  %15 = getelementptr inbounds nuw %struct.ocsp_responder_id_st, ptr %14, i32 0, i32 0
  store i32 0, ptr %15, align 8, !tbaa !105
  store i32 1, ptr %3, align 4
  br label %16

16:                                               ; preds = %13, %12
  %17 = load i32, ptr %3, align 4
  ret i32 %17
}