; Function Attrs: nounwind uwtable
define range(i32 0, 2) i32 @OCSP_RESPID_set_by_name(ptr noundef %0, ptr noundef %1) local_unnamed_addr #0 {
  %3 = getelementptr inbounds nuw i8, ptr %0, i64 8
  %4 = tail call ptr @X509_get_subject_name(ptr noundef %1) #6
  %5 = tail call i32 @X509_NAME_set(ptr noundef nonnull %3, ptr noundef %4) #6
  %.not = icmp eq i32 %5, 0
  br i1 %.not, label %7, label %6

6:                                                ; preds = %2
  store i32 0, ptr %0, align 8, !tbaa !51
  br label %7

7:                                                ; preds = %2, %6
  %.0 = phi i32 [ 1, %6 ], [ 0, %2 ]
  ret i32 %.0
}